; Function Attrs: mustprogress uwtable
define void @_ZN32pxrInternal_v0_24__pxrReserved__7TfDebug13SetOutputFileEP8_IO_FILE(ptr noundef %0) local_unnamed_addr #0 align 2 {
  %2 = alloca %"class.pxrInternal_v0_24__pxrReserved__::TfCallContext", align 8
  %3 = load ptr, ptr @stdout, align 8
  %4 = icmp eq ptr %0, %3
  %5 = load ptr, ptr @stderr, align 8
  %6 = icmp eq ptr %0, %5
  %or.cond = select i1 %4, i1 true, i1 %6
  br i1 %or.cond, label %7, label %9

7:                                                ; preds = %1
  tail call fastcc void @_ZN32pxrInternal_v0_24__pxrReserved__L14_GetOutputFileEv()
  %8 = ptrtoint ptr %0 to i64
  store atomic i64 %8, ptr @_ZZN32pxrInternal_v0_24__pxrReserved__L14_GetOutputFileEvE11_outputFile seq_cst, align 8
  br label %14

9:                                                ; preds = %1
  store ptr @.str.10, ptr %2, align 8
  %10 = getelementptr inbounds nuw i8, ptr %2, i64 8
  store ptr @__func__._ZN32pxrInternal_v0_24__pxrReserved__7TfDebug13SetOutputFileEP8_IO_FILE, ptr %10, align 8
  %11 = getelementptr inbounds nuw i8, ptr %2, i64 16
  store i64 381, ptr %11, align 8
  %12 = getelementptr inbounds nuw i8, ptr %2, i64 24
  store ptr @__PRETTY_FUNCTION__._ZN32pxrInternal_v0_24__pxrReserved__7TfDebug13SetOutputFileEP8_IO_FILE, ptr %12, align 8
  %13 = getelementptr inbounds nuw i8, ptr %2, i64 32
  store i8 0, ptr %13, align 8
  call void (ptr, i32, ptr, ...) @_ZN32pxrInternal_v0_24__pxrReserved__18Tf_PostErrorHelperERKNS_13TfCallContextENS_16TfDiagnosticTypeEPKcz(ptr noundef nonnull align 8 dereferenceable(33) %2, i32 noundef 1, ptr noundef nonnull @.str.11)
  br label %14

14:                                               ; preds = %9, %7
  ret void
}